target datalayout = "e-m:e-p270:32:32-p271:32:32-p272:64:64-i64:64-i128:128-f80:128-n8:16:32:64-S128"
target triple = "x86_64-pc-linux-gnu"

%struct.UCharIterator = type { ptr, i32, i32, i32, i32, i32, ptr, ptr, ptr, ptr, ptr, ptr, ptr, ptr, ptr, ptr }

; Function Attrs: mustprogress nounwind uwtable
define internal noundef signext i8 @_ZL21stringIteratorHasNextP13UCharIterator(ptr noundef %0) #3 {
  %2 = alloca ptr, align 8
  store ptr %0, ptr %2, align 8, !tbaa !3
  %3 = load ptr, ptr %2, align 8, !tbaa !3
  %4 = getelementptr inbounds nuw %struct.UCharIterator, ptr %3, i32 0, i32 3
  %5 = load i32, ptr %4, align 8, !tbaa !40
  %6 = load ptr, ptr %2, align 8, !tbaa !3
  %7 = getelementptr inbounds nuw %struct.UCharIterator, ptr %6, i32 0, i32 4
  %8 = load i32, ptr %7, align 4, !tbaa !17
  %9 = icmp slt i32 %5, %8
  %10 = zext i1 %9 to i8
  ret i8 %10
}