; Function Attrs: mustprogress nofree norecurse nosync nounwind willreturn memory(argmem: read) uwtable
define internal noundef signext range(i8 0, 2) i8 @_ZL21stringIteratorHasNextP13UCharIterator(ptr noundef readonly captures(none) %0) #7 {
  %2 = getelementptr inbounds nuw i8, ptr %0, i64 16
  %3 = load i32, ptr %2, align 8, !tbaa !28
  %4 = getelementptr inbounds nuw i8, ptr %0, i64 20
  %5 = load i32, ptr %4, align 4, !tbaa !13
  %6 = icmp slt i32 %3, %5
  %7 = zext i1 %6 to i8
  ret i8 %7
}